target datalayout = "e-m:e-p270:32:32-p271:32:32-p272:64:64-i64:64-i128:128-f80:128-n8:16:32:64-S128"
target triple = "x86_64-pc-linux-gnu"

%struct.AVFilterContext = type { ptr, ptr, ptr, ptr, ptr, i32, ptr, ptr, i32, ptr, ptr, i32, i32, ptr, ptr, ptr, ptr, i32, ptr, i32, i32 }
%struct.SeparateFieldsContext = type { i32, ptr }
%struct.AVFilterLink = type { ptr, ptr, ptr, ptr, i32, i32, i32, i32, %struct.AVRational, i32, i32, i32, %struct.AVChannelLayout, %struct.AVRational, ptr, i32, %struct.AVFilterFormatsConfig, %struct.AVFilterFormatsConfig }
%struct.AVChannelLayout = type { i32, i32, %union.anon.1, ptr }
%union.anon.1 = type { i64 }
%struct.AVRational = type { i32, i32 }
%struct.AVFilterFormatsConfig = type { ptr, ptr, ptr, ptr, ptr }
%struct.FilterLink = type { %struct.AVFilterLink, ptr, i64, i64, i32, i32, i64, i64, i64, i64, %struct.AVRational, ptr }

@.str.3 = private unnamed_addr constant [21 x i8] c"height must be even\0A\00", align 1

; Function Attrs: inlinehint nounwind uwtable
define internal ptr @ff_filter_link(ptr noundef %0) #3 {
  %2 = alloca ptr, align 8
  store ptr %0, ptr %2, align 8, !tbaa !25
  %3 = load ptr, ptr %2, align 8, !tbaa !25
  ret ptr %3
}

; Function Attrs: nounwind uwtable
define internal i32 @config_props_output(ptr noundef %0) #1 {
  %2 = alloca i32, align 4
  %3 = alloca ptr, align 8
  %4 = alloca ptr, align 8
  %5 = alloca ptr, align 8
  %6 = alloca ptr, align 8
  %7 = alloca ptr, align 8
  %8 = alloca ptr, align 8
  %9 = alloca i32, align 4
  store ptr %0, ptr %3, align 8, !tbaa !25
  call void @llvm.lifetime.start.p0(i64 8, ptr %4) #5
  %10 = load ptr, ptr %3, align 8, !tbaa !25
  %11 = getelementptr inbounds nuw %struct.AVFilterLink, ptr %10, i32 0, i32 0
  %12 = load ptr, ptr %11, align 8, !tbaa !33
  store ptr %12, ptr %4, align 8, !tbaa !4
  call void @llvm.lifetime.start.p0(i64 8, ptr %5) #5
  %13 = load ptr, ptr %4, align 8, !tbaa !4
  %14 = getelementptr inbounds nuw %struct.AVFilterContext, ptr %13, i32 0, i32 9
  %15 = load ptr, ptr %14, align 8, !tbaa !9
  store ptr %15, ptr %5, align 8, !tbaa !22
  call void @llvm.lifetime.start.p0(i64 8, ptr %6) #5
  %16 = load ptr, ptr %4, align 8, !tbaa !4
  %17 = getelementptr inbounds nuw %struct.AVFilterContext, ptr %16, i32 0, i32 4
  %18 = load ptr, ptr %17, align 8, !tbaa !24
  %19 = getelementptr inbounds ptr, ptr %18, i64 0
  %20 = load ptr, ptr %19, align 8, !tbaa !25
  store ptr %20, ptr %6, align 8, !tbaa !25
  call void @llvm.lifetime.start.p0(i64 8, ptr %7) #5
  %21 = load ptr, ptr %6, align 8, !tbaa !25
  %22 = call ptr @ff_filter_link(ptr noundef %21)
  store ptr %22, ptr %7, align 8, !tbaa !41
  call void @llvm.lifetime.start.p0(i64 8, ptr %8) #5
  %23 = load ptr, ptr %3, align 8, !tbaa !25
  %24 = call ptr @ff_filter_link(ptr noundef %23)
  store ptr %24, ptr %8, align 8, !tbaa !41
  %25 = load ptr, ptr %6, align 8, !tbaa !25
  %26 = getelementptr inbounds nuw %struct.AVFilterLink, ptr %25, i32 0, i32 5
  %27 = load i32, ptr %26, align 4, !tbaa !43
  %28 = call i32 @av_pix_fmt_count_planes(i32 noundef %27)
  %29 = load ptr, ptr %5, align 8, !tbaa !22
  %30 = getelementptr inbounds nuw %struct.SeparateFieldsContext, ptr %29, i32 0, i32 0
  store i32 %28, ptr %30, align 8, !tbaa !44
  %31 = load ptr, ptr %6, align 8, !tbaa !25
  %32 = getelementptr inbounds nuw %struct.AVFilterLink, ptr %31, i32 0, i32 7
  %33 = load i32, ptr %32, align 4, !tbaa !46
  %34 = and i32 %33, 1
  %35 = icmp ne i32 %34, 0
  br i1 %35, label %36, label %38

36:                                               ; preds = %1
  %37 = load ptr, ptr %4, align 8, !tbaa !4
  call void (ptr, i32, ptr, ...) @av_log(ptr noundef %37, i32 noundef 16, ptr noundef @.str.3)
  store i32 -1094995529, ptr %2, align 4
  store i32 1, ptr %9, align 4
  br label %80

38:                                               ; preds = %1
  %39 = load ptr, ptr %6, align 8, !tbaa !25
  %40 = getelementptr inbounds nuw %struct.AVFilterLink, ptr %39, i32 0, i32 13
  %41 = getelementptr inbounds nuw %struct.AVRational, ptr %40, i32 0, i32 0
  %42 = load i32, ptr %41, align 8, !tbaa !47
  %43 = load ptr, ptr %3, align 8, !tbaa !25
  %44 = getelementptr inbounds nuw %struct.AVFilterLink, ptr %43, i32 0, i32 13
  %45 = getelementptr inbounds nuw %struct.AVRational, ptr %44, i32 0, i32 0
  store i32 %42, ptr %45, align 8, !tbaa !47
  %46 = load ptr, ptr %6, align 8, !tbaa !25
  %47 = getelementptr inbounds nuw %struct.AVFilterLink, ptr %46, i32 0, i32 13
  %48 = getelementptr inbounds nuw %struct.AVRational, ptr %47, i32 0, i32 1
  %49 = load i32, ptr %48, align 4, !tbaa !48
  %50 = mul nsw i32 %49, 2
  %51 = load ptr, ptr %3, align 8, !tbaa !25
  %52 = getelementptr inbounds nuw %struct.AVFilterLink, ptr %51, i32 0, i32 13
  %53 = getelementptr inbounds nuw %struct.AVRational, ptr %52, i32 0, i32 1
  store i32 %50, ptr %53, align 4, !tbaa !48
  %54 = load ptr, ptr %7, align 8, !tbaa !41
  %55 = getelementptr inbounds nuw %struct.FilterLink, ptr %54, i32 0, i32 10
  %56 = getelementptr inbounds nuw %struct.AVRational, ptr %55, i32 0, i32 0
  %57 = load i32, ptr %56, align 8, !tbaa !49
  %58 = mul nsw i32 %57, 2
  %59 = load ptr, ptr %8, align 8, !tbaa !41
  %60 = getelementptr inbounds nuw %struct.FilterLink, ptr %59, i32 0, i32 10
  %61 = getelementptr inbounds nuw %struct.AVRational, ptr %60, i32 0, i32 0
  store i32 %58, ptr %61, align 8, !tbaa !49
  %62 = load ptr, ptr %7, align 8, !tbaa !41
  %63 = getelementptr inbounds nuw %struct.FilterLink, ptr %62, i32 0, i32 10
  %64 = getelementptr inbounds nuw %struct.AVRational, ptr %63, i32 0, i32 1
  %65 = load i32, ptr %64, align 4, !tbaa !51
  %66 = load ptr, ptr %8, align 8, !tbaa !41
  %67 = getelementptr inbounds nuw %struct.FilterLink, ptr %66, i32 0, i32 10
  %68 = getelementptr inbounds nuw %struct.AVRational, ptr %67, i32 0, i32 1
  store i32 %65, ptr %68, align 4, !tbaa !51
  %69 = load ptr, ptr %6, align 8, !tbaa !25
  %70 = getelementptr inbounds nuw %struct.AVFilterLink, ptr %69, i32 0, i32 6
  %71 = load i32, ptr %70, align 8, !tbaa !52
  %72 = load ptr, ptr %3, align 8, !tbaa !25
  %73 = getelementptr inbounds nuw %struct.AVFilterLink, ptr %72, i32 0, i32 6
  store i32 %71, ptr %73, align 8, !tbaa !52
  %74 = load ptr, ptr %6, align 8, !tbaa !25
  %75 = getelementptr inbounds nuw %struct.AVFilterLink, ptr %74, i32 0, i32 7
  %76 = load i32, ptr %75, align 4, !tbaa !46
  %77 = sdiv i32 %76, 2
  %78 = load ptr, ptr %3, align 8, !tbaa !25
  %79 = getelementptr inbounds nuw %struct.AVFilterLink, ptr %78, i32 0, i32 7
  store i32 %77, ptr %79, align 4, !tbaa !46
  store i32 0, ptr %2, align 4
  store i32 1, ptr %9, align 4
  br label %80

80:                                               ; preds = %38, %36
  call void @llvm.lifetime.end.p0(i64 8, ptr %8) #5
  call void @llvm.lifetime.end.p0(i64 8, ptr %7) #5
  call void @llvm.lifetime.end.p0(i64 8, ptr %6) #5
  call void @llvm.lifetime.end.p0(i64 8, ptr %5) #5
  call void @llvm.lifetime.end.p0(i64 8, ptr %4) #5
  %81 = load i32, ptr %2, align 4
  ret i32 %81
}