; Function Attrs: nounwind uwtable
define internal range(i32 -1094995529, 1) i32 @config_props_output(ptr noundef captures(none) %0) #1 {
  %2 = load ptr, ptr %0, align 8, !tbaa !52
  %3 = getelementptr inbounds nuw i8, ptr %2, i64 72
  %4 = load ptr, ptr %3, align 8, !tbaa !4
  %5 = getelementptr inbounds nuw i8, ptr %2, i64 32
  %6 = load ptr, ptr %5, align 8, !tbaa !20
  %7 = load ptr, ptr %6, align 8, !tbaa !21
  %8 = getelementptr inbounds nuw i8, ptr %7, i64 36
  %9 = load i32, ptr %8, align 4, !tbaa !53
  %10 = tail call i32 @av_pix_fmt_count_planes(i32 noundef %9) #4
  store i32 %10, ptr %4, align 8, !tbaa !45
  %11 = getelementptr inbounds nuw i8, ptr %7, i64 44
  %12 = load i32, ptr %11, align 4, !tbaa !35
  %13 = and i32 %12, 1
  %.not = icmp eq i32 %13, 0
  br i1 %.not, label %15, label %14

14:                                               ; preds = %1
  tail call void (ptr, i32, ptr, ...) @av_log(ptr noundef nonnull %2, i32 noundef 16, ptr noundef nonnull @.str.3) #4
  br label %35

15:                                               ; preds = %1
  %16 = getelementptr inbounds nuw i8, ptr %7, i64 96
  %17 = load i32, ptr %16, align 8, !tbaa !54
  %18 = getelementptr inbounds nuw i8, ptr %0, i64 96
  store i32 %17, ptr %18, align 8, !tbaa !54
  %19 = getelementptr inbounds nuw i8, ptr %7, i64 100
  %20 = load i32, ptr %19, align 4, !tbaa !55
  %21 = shl nsw i32 %20, 1
  %22 = getelementptr inbounds nuw i8, ptr %0, i64 100
  store i32 %21, ptr %22, align 4, !tbaa !55
  %23 = getelementptr inbounds nuw i8, ptr %7, i64 264
  %24 = load i32, ptr %23, align 8, !tbaa !56
  %25 = shl nsw i32 %24, 1
  %26 = getelementptr inbounds nuw i8, ptr %0, i64 264
  store i32 %25, ptr %26, align 8, !tbaa !56
  %27 = getelementptr inbounds nuw i8, ptr %7, i64 268
  %28 = load i32, ptr %27, align 4, !tbaa !58
  %29 = getelementptr inbounds nuw i8, ptr %0, i64 268
  store i32 %28, ptr %29, align 4, !tbaa !58
  %30 = getelementptr inbounds nuw i8, ptr %7, i64 40
  %31 = load i32, ptr %30, align 8, !tbaa !59
  %32 = getelementptr inbounds nuw i8, ptr %0, i64 40
  store i32 %31, ptr %32, align 8, !tbaa !59
  %33 = ashr exact i32 %12, 1
  %34 = getelementptr inbounds nuw i8, ptr %0, i64 44
  store i32 %33, ptr %34, align 4, !tbaa !35
  br label %35

35:                                               ; preds = %15, %14
  %.0 = phi i32 [ -1094995529, %14 ], [ 0, %15 ]
  ret i32 %.0
}